; Function Attrs: mustprogress uwtable
define void @_ZN7rocksdb17WideColumnsHelper15DumpWideColumnsERKSt6vectorINS_10WideColumnESaIS2_EERSob(ptr noundef nonnull readonly align 8 captures(none) dereferenceable(24) %0, ptr noundef nonnull align 8 dereferenceable(8) %1, i1 noundef zeroext %2) local_unnamed_addr #0 align 2 {
  %4 = alloca i8, align 1
  %5 = load ptr, ptr %0, align 8, !tbaa !4
  %6 = getelementptr inbounds nuw i8, ptr %0, i64 8
  %7 = load ptr, ptr %6, align 8, !tbaa !4
  %8 = icmp eq ptr %5, %7
  br i1 %8, label %37, label %9

9:                                                ; preds = %3
  %10 = load ptr, ptr %1, align 8, !tbaa !9
  %11 = getelementptr i8, ptr %10, i64 -24
  %12 = load i64, ptr %11, align 8
  %13 = getelementptr inbounds i8, ptr %1, i64 %12
  %14 = getelementptr inbounds nuw i8, ptr %13, i64 24
  %15 = load i32, ptr %14, align 8, !tbaa !11
  br i1 %2, label %16, label %19

16:                                               ; preds = %9
  %17 = and i32 %15, -75
  %18 = or disjoint i32 %17, 8
  store i32 %18, ptr %14, align 4, !tbaa !22
  br label %19

19:                                               ; preds = %16, %9
  %20 = tail call noundef nonnull align 8 dereferenceable(8) ptr @_ZN7rocksdblsERSoRKNS_10WideColumnE(ptr noundef nonnull align 8 dereferenceable(8) %1, ptr noundef nonnull align 8 dereferenceable(32) %5)
  %invariant.gep = getelementptr i8, ptr %1, i64 16
  %.sroa.09.014 = getelementptr inbounds nuw i8, ptr %5, i64 32
  %21 = load ptr, ptr %6, align 8, !tbaa !4
  %.not15 = icmp eq ptr %.sroa.09.014, %21
  br i1 %.not15, label %._crit_edge, label %.lr.ph

.lr.ph:                                           ; preds = %19, %_ZStlsISt11char_traitsIcEERSt13basic_ostreamIcT_ES5_c.exit
  %.sroa.09.016 = phi ptr [ %.sroa.09.0, %_ZStlsISt11char_traitsIcEERSt13basic_ostreamIcT_ES5_c.exit ], [ %.sroa.09.014, %19 ]
  call void @llvm.lifetime.start.p0(i64 1, ptr nonnull %4)
  store i8 32, ptr %4, align 1, !tbaa !23
  %22 = load ptr, ptr %1, align 8, !tbaa !9
  %23 = getelementptr i8, ptr %22, i64 -24
  %24 = load i64, ptr %23, align 8
  %gep = getelementptr i8, ptr %invariant.gep, i64 %24
  %25 = load i64, ptr %gep, align 8, !tbaa !24
  %.not.i = icmp eq i64 %25, 0
  br i1 %.not.i, label %28, label %26

26:                                               ; preds = %.lr.ph
  %27 = call noundef nonnull align 8 dereferenceable(8) ptr @_ZSt16__ostream_insertIcSt11char_traitsIcEERSt13basic_ostreamIT_T0_ES6_PKS3_l(ptr noundef nonnull align 8 dereferenceable(8) %1, ptr noundef nonnull %4, i64 noundef 1)
  br label %_ZStlsISt11char_traitsIcEERSt13basic_ostreamIcT_ES5_c.exit

28:                                               ; preds = %.lr.ph
  %29 = call noundef nonnull align 8 dereferenceable(8) ptr @_ZNSo3putEc(ptr noundef nonnull align 8 dereferenceable(8) %1, i8 noundef signext 32)
  br label %_ZStlsISt11char_traitsIcEERSt13basic_ostreamIcT_ES5_c.exit

_ZStlsISt11char_traitsIcEERSt13basic_ostreamIcT_ES5_c.exit: ; preds = %26, %28
  %.0.i = phi ptr [ %27, %26 ], [ %1, %28 ]
  call void @llvm.lifetime.end.p0(i64 1, ptr nonnull %4)
  %30 = call noundef nonnull align 8 dereferenceable(8) ptr @_ZN7rocksdblsERSoRKNS_10WideColumnE(ptr noundef nonnull align 8 dereferenceable(8) %.0.i, ptr noundef nonnull align 8 dereferenceable(32) %.sroa.09.016)
  %.sroa.09.0 = getelementptr inbounds nuw i8, ptr %.sroa.09.016, i64 32
  %31 = load ptr, ptr %6, align 8, !tbaa !4
  %.not = icmp eq ptr %.sroa.09.0, %31
  br i1 %.not, label %._crit_edge, label %.lr.ph, !llvm.loop !25

._crit_edge:                                      ; preds = %_ZStlsISt11char_traitsIcEERSt13basic_ostreamIcT_ES5_c.exit, %19
  %32 = load ptr, ptr %1, align 8, !tbaa !9
  %33 = getelementptr i8, ptr %32, i64 -24
  %34 = load i64, ptr %33, align 8
  %35 = getelementptr inbounds i8, ptr %1, i64 %34
  %36 = getelementptr inbounds nuw i8, ptr %35, i64 24
  store i32 %15, ptr %36, align 8, !tbaa !11
  br label %37

37:                                               ; preds = %3, %._crit_edge
  ret void
}